target datalayout = "e-m:e-p270:32:32-p271:32:32-p272:64:64-i64:64-i128:128-f80:128-n8:16:32:64-S128"
target triple = "x86_64-pc-linux-gnu"

%struct.ForeignScanState = type { %struct.ScanState, ptr, i64, ptr, ptr, ptr }
%struct.ScanState = type { %struct.PlanState, ptr, ptr, ptr }
%struct.PlanState = type { i32, ptr, ptr, ptr, ptr, ptr, ptr, ptr, ptr, ptr, ptr, ptr, ptr, ptr, ptr, ptr, ptr, ptr, i8, ptr, ptr, ptr, ptr, ptr, i8, i8, i8, i8, i8, i8, i8, i8 }
%struct.FdwRoutine = type { i32, ptr, ptr, ptr, ptr, ptr, ptr, ptr, ptr, ptr, ptr, ptr, ptr, ptr, ptr, ptr, ptr, ptr, ptr, ptr, ptr, ptr, ptr, ptr, ptr, ptr, ptr, ptr, ptr, ptr, ptr, ptr, ptr, ptr, ptr, ptr, ptr, ptr, ptr, ptr, ptr, ptr, ptr, ptr, ptr, ptr }
%struct.ParallelContext = type { %struct.dlist_node, i32, i32, i32, i32, ptr, ptr, ptr, %struct.shm_toc_estimator, ptr, ptr, ptr, ptr, i32, ptr }
%struct.dlist_node = type { ptr, ptr }
%struct.shm_toc_estimator = type { i64, i64 }

; Function Attrs: nounwind uwtable
define dso_local void @ExecForeignScanEstimate(ptr noundef %0, ptr noundef %1) #0 {
  %3 = alloca ptr, align 8
  %4 = alloca ptr, align 8
  %5 = alloca ptr, align 8
  store ptr %0, ptr %3, align 8
  store ptr %1, ptr %4, align 8
  call void @llvm.lifetime.start.p0(i64 8, ptr %5) #5
  %6 = load ptr, ptr %3, align 8
  %7 = getelementptr inbounds nuw %struct.ForeignScanState, ptr %6, i32 0, i32 4
  %8 = load ptr, ptr %7, align 8
  store ptr %8, ptr %5, align 8
  %9 = load ptr, ptr %5, align 8
  %10 = getelementptr inbounds nuw %struct.FdwRoutine, ptr %9, i32 0, i32 36
  %11 = load ptr, ptr %10, align 8
  %12 = icmp ne ptr %11, null
  br i1 %12, label %13, label %43

13:                                               ; preds = %2
  %14 = load ptr, ptr %5, align 8
  %15 = getelementptr inbounds nuw %struct.FdwRoutine, ptr %14, i32 0, i32 36
  %16 = load ptr, ptr %15, align 8
  %17 = load ptr, ptr %3, align 8
  %18 = load ptr, ptr %4, align 8
  %19 = call i64 %16(ptr noundef %17, ptr noundef %18)
  %20 = load ptr, ptr %3, align 8
  %21 = getelementptr inbounds nuw %struct.ForeignScanState, ptr %20, i32 0, i32 2
  store i64 %19, ptr %21, align 8
  %22 = load ptr, ptr %4, align 8
  %23 = getelementptr inbounds nuw %struct.ParallelContext, ptr %22, i32 0, i32 8
  %24 = getelementptr inbounds nuw %struct.shm_toc_estimator, ptr %23, i32 0, i32 0
  %25 = load i64, ptr %24, align 8
  %26 = load ptr, ptr %3, align 8
  %27 = getelementptr inbounds nuw %struct.ForeignScanState, ptr %26, i32 0, i32 2
  %28 = load i64, ptr %27, align 8
  %29 = add i64 %28, 31
  %30 = and i64 %29, -32
  %31 = call i64 @add_size(i64 noundef %25, i64 noundef %30)
  %32 = load ptr, ptr %4, align 8
  %33 = getelementptr inbounds nuw %struct.ParallelContext, ptr %32, i32 0, i32 8
  %34 = getelementptr inbounds nuw %struct.shm_toc_estimator, ptr %33, i32 0, i32 0
  store i64 %31, ptr %34, align 8
  %35 = load ptr, ptr %4, align 8
  %36 = getelementptr inbounds nuw %struct.ParallelContext, ptr %35, i32 0, i32 8
  %37 = getelementptr inbounds nuw %struct.shm_toc_estimator, ptr %36, i32 0, i32 1
  %38 = load i64, ptr %37, align 8
  %39 = call i64 @add_size(i64 noundef %38, i64 noundef 1)
  %40 = load ptr, ptr %4, align 8
  %41 = getelementptr inbounds nuw %struct.ParallelContext, ptr %40, i32 0, i32 8
  %42 = getelementptr inbounds nuw %struct.shm_toc_estimator, ptr %41, i32 0, i32 1
  store i64 %39, ptr %42, align 8
  br label %43

43:                                               ; preds = %13, %2
  call void @llvm.lifetime.end.p0(i64 8, ptr %5) #5
  ret void
}