; Function Attrs: nounwind uwtable
define dso_local void @ExecForeignScanEstimate(ptr noundef %0, ptr noundef %1) local_unnamed_addr #0 {
  %3 = getelementptr inbounds nuw i8, ptr %0, i64 248
  %4 = load ptr, ptr %3, align 8
  %5 = getelementptr inbounds nuw i8, ptr %4, i64 288
  %6 = load ptr, ptr %5, align 8
  %.not = icmp eq ptr %6, null
  br i1 %.not, label %18, label %7

7:                                                ; preds = %2
  %8 = tail call i64 %6(ptr noundef nonnull %0, ptr noundef %1) #5
  %9 = getelementptr inbounds nuw i8, ptr %0, i64 232
  store i64 %8, ptr %9, align 8
  %10 = getelementptr inbounds nuw i8, ptr %1, i64 56
  %11 = load i64, ptr %10, align 8
  %12 = add i64 %8, 31
  %13 = and i64 %12, -32
  %14 = tail call i64 @add_size(i64 noundef %11, i64 noundef %13) #5
  store i64 %14, ptr %10, align 8
  %15 = getelementptr inbounds nuw i8, ptr %1, i64 64
  %16 = load i64, ptr %15, align 8
  %17 = tail call i64 @add_size(i64 noundef %16, i64 noundef 1) #5
  store i64 %17, ptr %15, align 8
  br label %18

18:                                               ; preds = %7, %2
  ret void
}